target datalayout = "e-m:e-p270:32:32-p271:32:32-p272:64:64-i64:64-i128:128-f80:128-n8:16:32:64-S128"
target triple = "x86_64-pc-linux-gnu"

%struct.rb_shape = type { ptr, i64, i32, i32, i8, i8, i32, ptr }
%struct.RClass_and_rb_classext_t = type { %struct.RClass, %struct.rb_classext_struct }
%struct.RClass = type { %struct.RBasic, i64, ptr }
%struct.RBasic = type { i64, i64 }
%struct.rb_classext_struct = type { ptr, ptr, ptr, ptr, ptr, i64, ptr, ptr, ptr, ptr, i64, i64, %union.anon, i64, i32, i8, i8, i64 }
%union.anon = type { %struct.anon }
%struct.anon = type { ptr }

; Function Attrs: inlinehint nounwind sspstrong willreturn memory(read) uwtable
define internal i32 @RB_BUILTIN_TYPE(i64 noundef %0) #5 {
  %2 = alloca i64, align 8
  %3 = alloca i64, align 8
  store i64 %0, ptr %2, align 8, !tbaa !26
  call void @llvm.lifetime.start.p0(i64 8, ptr %3) #14
  %4 = load i64, ptr %2, align 8, !tbaa !26
  %5 = inttoptr i64 %4 to ptr
  %6 = getelementptr inbounds nuw %struct.RBasic, ptr %5, i32 0, i32 0
  %7 = load i64, ptr %6, align 8, !tbaa !44
  %8 = and i64 %7, 31
  store i64 %8, ptr %3, align 8, !tbaa !26
  %9 = load i64, ptr %3, align 8, !tbaa !26
  %10 = trunc i64 %9 to i32
  call void @llvm.lifetime.end.p0(i64 8, ptr %3) #14
  ret i32 %10
}

; Function Attrs: inlinehint nounwind sspstrong uwtable
define internal ptr @shape_get_next(ptr noundef %0, i64 noundef %1, i64 noundef %2, i1 noundef zeroext %3) #1 {
  %5 = alloca ptr, align 8
  %6 = alloca ptr, align 8
  %7 = alloca i64, align 8
  %8 = alloca i64, align 8
  %9 = alloca i8, align 1
  %10 = alloca i8, align 1
  %11 = alloca i64, align 8
  %12 = alloca i8, align 1
  %13 = alloca ptr, align 8
  %14 = alloca i64, align 8
  store ptr %0, ptr %6, align 8, !tbaa !16
  store i64 %1, ptr %7, align 8, !tbaa !26
  store i64 %2, ptr %8, align 8, !tbaa !26
  %15 = zext i1 %3 to i8
  store i8 %15, ptr %9, align 1, !tbaa !50
  %16 = load ptr, ptr %6, align 8, !tbaa !16
  %17 = getelementptr inbounds nuw %struct.rb_shape, ptr %16, i32 0, i32 4
  %18 = load i8, ptr %17, align 8, !tbaa !28
  %19 = zext i8 %18 to i32
  %20 = icmp eq i32 %19, 4
  %21 = xor i1 %20, true
  %22 = xor i1 %21, true
  %23 = zext i1 %22 to i32
  %24 = sext i32 %23 to i64
  %25 = call i64 @llvm.expect.i64(i64 %24, i64 0)
  %26 = icmp ne i64 %25, 0
  br i1 %26, label %27, label %29

27:                                               ; preds = %4
  %28 = load ptr, ptr %6, align 8, !tbaa !16
  store ptr %28, ptr %5, align 8
  br label %103

29:                                               ; preds = %4
  call void @llvm.lifetime.start.p0(i64 1, ptr %10) #14
  store i8 1, ptr %10, align 1, !tbaa !50
  %30 = load i64, ptr %7, align 8, !tbaa !26
  %31 = call i32 @RB_BUILTIN_TYPE(i64 noundef %30) #16
  %32 = icmp eq i32 %31, 1
  br i1 %32, label %33, label %44

33:                                               ; preds = %29
  call void @llvm.lifetime.start.p0(i64 8, ptr %11) #14
  %34 = load i64, ptr %7, align 8, !tbaa !26
  %35 = call i64 @rb_obj_class(i64 noundef %34)
  store i64 %35, ptr %11, align 8, !tbaa !26
  %36 = load i64, ptr %11, align 8, !tbaa !26
  %37 = inttoptr i64 %36 to ptr
  %38 = getelementptr inbounds nuw %struct.RClass_and_rb_classext_t, ptr %37, i32 0, i32 1
  %39 = getelementptr inbounds nuw %struct.rb_classext_struct, ptr %38, i32 0, i32 15
  %40 = load i8, ptr %39, align 4, !tbaa !54
  %41 = zext i8 %40 to i32
  %42 = icmp slt i32 %41, 8
  %43 = zext i1 %42 to i8
  store i8 %43, ptr %10, align 1, !tbaa !50
  call void @llvm.lifetime.end.p0(i64 8, ptr %11) #14
  br label %44

44:                                               ; preds = %33, %29
  call void @llvm.lifetime.start.p0(i64 1, ptr %12) #14
  store i8 0, ptr %12, align 1, !tbaa !50
  call void @llvm.lifetime.start.p0(i64 8, ptr %13) #14
  %45 = load ptr, ptr %6, align 8, !tbaa !16
  %46 = load i64, ptr %8, align 8, !tbaa !26
  %47 = load i8, ptr %10, align 1, !tbaa !50, !range !52, !noundef !53
  %48 = trunc i8 %47 to i1
  %49 = call ptr @get_next_shape_internal(ptr noundef %45, i64 noundef %46, i32 noundef 1, ptr noundef %12, i1 noundef zeroext %48)
  store ptr %49, ptr %13, align 8, !tbaa !16
  %50 = load i64, ptr %7, align 8, !tbaa !26
  %51 = call i32 @RB_BUILTIN_TYPE(i64 noundef %50) #16
  %52 = icmp eq i32 %51, 1
  br i1 %52, label %53, label %101

53:                                               ; preds = %44
  call void @llvm.lifetime.start.p0(i64 8, ptr %14) #14
  %54 = load i64, ptr %7, align 8, !tbaa !26
  %55 = call i64 @rb_obj_class(i64 noundef %54)
  store i64 %55, ptr %14, align 8, !tbaa !26
  %56 = load ptr, ptr %13, align 8, !tbaa !16
  %57 = getelementptr inbounds nuw %struct.rb_shape, ptr %56, i32 0, i32 2
  %58 = load i32, ptr %57, align 8, !tbaa !40
  %59 = load i64, ptr %14, align 8, !tbaa !26
  %60 = inttoptr i64 %59 to ptr
  %61 = getelementptr inbounds nuw %struct.RClass_and_rb_classext_t, ptr %60, i32 0, i32 1
  %62 = getelementptr inbounds nuw %struct.rb_classext_struct, ptr %61, i32 0, i32 14
  %63 = load i32, ptr %62, align 8, !tbaa !55
  %64 = icmp ugt i32 %58, %63
  br i1 %64, label %65, label %73

65:                                               ; preds = %53
  %66 = load ptr, ptr %13, align 8, !tbaa !16
  %67 = getelementptr inbounds nuw %struct.rb_shape, ptr %66, i32 0, i32 2
  %68 = load i32, ptr %67, align 8, !tbaa !40
  %69 = load i64, ptr %14, align 8, !tbaa !26
  %70 = inttoptr i64 %69 to ptr
  %71 = getelementptr inbounds nuw %struct.RClass_and_rb_classext_t, ptr %70, i32 0, i32 1
  %72 = getelementptr inbounds nuw %struct.rb_classext_struct, ptr %71, i32 0, i32 14
  store i32 %68, ptr %72, align 8, !tbaa !55
  br label %73

73:                                               ; preds = %65, %53
  %74 = load i8, ptr %12, align 1, !tbaa !50, !range !52, !noundef !53
  %75 = trunc i8 %74 to i1
  br i1 %75, label %76, label %100

76:                                               ; preds = %73
  %77 = load i64, ptr %14, align 8, !tbaa !26
  %78 = inttoptr i64 %77 to ptr
  %79 = getelementptr inbounds nuw %struct.RClass_and_rb_classext_t, ptr %78, i32 0, i32 1
  %80 = getelementptr inbounds nuw %struct.rb_classext_struct, ptr %79, i32 0, i32 15
  %81 = load i8, ptr %80, align 4, !tbaa !54
  %82 = add i8 %81, 1
  store i8 %82, ptr %80, align 4, !tbaa !54
  %83 = load i8, ptr %9, align 1, !tbaa !50, !range !52, !noundef !53
  %84 = trunc i8 %83 to i1
  br i1 %84, label %85, label %99

85:                                               ; preds = %76
  %86 = call zeroext i1 @rb_warning_category_enabled_p(i32 noundef 3)
  br i1 %86, label %87, label %99

87:                                               ; preds = %85
  %88 = load i64, ptr %14, align 8, !tbaa !26
  %89 = inttoptr i64 %88 to ptr
  %90 = getelementptr inbounds nuw %struct.RClass_and_rb_classext_t, ptr %89, i32 0, i32 1
  %91 = getelementptr inbounds nuw %struct.rb_classext_struct, ptr %90, i32 0, i32 15
  %92 = load i8, ptr %91, align 4, !tbaa !54
  %93 = zext i8 %92 to i32
  %94 = icmp sge i32 %93, 8
  br i1 %94, label %95, label %98

95:                                               ; preds = %87
  %96 = load i64, ptr %14, align 8, !tbaa !26
  %97 = call i64 @rb_class_path(i64 noundef %96)
  call void (i32, ptr, ...) @rb_category_warn(i32 noundef 3, ptr noundef @.str.4, i64 noundef %97, i32 noundef 8) #18
  br label %98

98:                                               ; preds = %95, %87
  br label %99

99:                                               ; preds = %98, %85, %76
  br label %100

100:                                              ; preds = %99, %73
  call void @llvm.lifetime.end.p0(i64 8, ptr %14) #14
  br label %101

101:                                              ; preds = %100, %44
  %102 = load ptr, ptr %13, align 8, !tbaa !16
  store ptr %102, ptr %5, align 8
  call void @llvm.lifetime.end.p0(i64 8, ptr %13) #14
  call void @llvm.lifetime.end.p0(i64 1, ptr %12) #14
  call void @llvm.lifetime.end.p0(i64 1, ptr %10) #14
  br label %103

103:                                              ; preds = %101, %27
  %104 = load ptr, ptr %5, align 8
  ret ptr %104
}

; Function Attrs: nounwind sspstrong uwtable
define hidden ptr @rb_shape_get_next_no_warnings(ptr noundef %0, i64 noundef %1, i64 noundef %2) #0 {
  %4 = alloca ptr, align 8
  %5 = alloca i64, align 8
  %6 = alloca i64, align 8
  store ptr %0, ptr %4, align 8, !tbaa !16
  store i64 %1, ptr %5, align 8, !tbaa !26
  store i64 %2, ptr %6, align 8, !tbaa !26
  %7 = load ptr, ptr %4, align 8, !tbaa !16
  %8 = load i64, ptr %5, align 8, !tbaa !26
  %9 = load i64, ptr %6, align 8, !tbaa !26
  %10 = call ptr @shape_get_next(ptr noundef %7, i64 noundef %8, i64 noundef %9, i1 noundef zeroext false)
  ret ptr %10
}