; Function Attrs: nounwind sspstrong uwtable
define hidden ptr @rb_shape_get_next_no_warnings(ptr noundef %0, i64 noundef %1, i64 noundef %2) local_unnamed_addr #1 {
  %4 = alloca i8, align 1
  %5 = getelementptr inbounds nuw i8, ptr %0, i64 24
  %6 = load i8, ptr %5, align 8, !tbaa !27
  %7 = icmp eq i8 %6, 4
  br i1 %7, label %shape_get_next.exit, label %8, !prof !28

8:                                                ; preds = %3
  %9 = inttoptr i64 %1 to ptr
  %10 = load i64, ptr %9, align 8, !tbaa !24
  %11 = and i64 %10, 31
  %12 = icmp eq i64 %11, 1
  br i1 %12, label %13, label %19

13:                                               ; preds = %8
  %14 = tail call i64 @rb_obj_class(i64 noundef %1) #15
  %15 = inttoptr i64 %14 to ptr
  %16 = getelementptr inbounds nuw i8, ptr %15, i64 148
  %17 = load i8, ptr %16, align 4, !tbaa !50
  %18 = icmp ult i8 %17, 8
  br label %19

19:                                               ; preds = %13, %8
  %.019.i = phi i1 [ %18, %13 ], [ true, %8 ]
  call void @llvm.lifetime.start.p0(i64 1, ptr nonnull %4) #15
  %20 = call fastcc ptr @get_next_shape_internal(ptr noundef nonnull %0, i64 noundef %2, i32 noundef 1, ptr noundef %4, i1 noundef zeroext %.019.i)
  %21 = load i64, ptr %9, align 8, !tbaa !24
  %22 = and i64 %21, 31
  %23 = icmp eq i64 %22, 1
  br i1 %23, label %24, label %40

24:                                               ; preds = %19
  %25 = tail call i64 @rb_obj_class(i64 noundef %1) #15
  %26 = getelementptr inbounds nuw i8, ptr %20, i64 16
  %27 = load i32, ptr %26, align 8, !tbaa !40
  %28 = inttoptr i64 %25 to ptr
  %29 = getelementptr inbounds nuw i8, ptr %28, i64 144
  %30 = load i32, ptr %29, align 8, !tbaa !51
  %31 = icmp ugt i32 %27, %30
  br i1 %31, label %32, label %33

32:                                               ; preds = %24
  store i32 %27, ptr %29, align 8, !tbaa !51
  br label %33

33:                                               ; preds = %32, %24
  %34 = load i8, ptr %4, align 1, !tbaa !43, !range !52, !noundef !53
  %35 = trunc nuw i8 %34 to i1
  br i1 %35, label %36, label %40

36:                                               ; preds = %33
  %37 = getelementptr inbounds nuw i8, ptr %28, i64 148
  %38 = load i8, ptr %37, align 4, !tbaa !50
  %39 = add i8 %38, 1
  store i8 %39, ptr %37, align 4, !tbaa !50
  br label %40

40:                                               ; preds = %36, %33, %19
  call void @llvm.lifetime.end.p0(i64 1, ptr nonnull %4) #15
  br label %shape_get_next.exit

shape_get_next.exit:                              ; preds = %3, %40
  %.0.i = phi ptr [ %20, %40 ], [ %0, %3 ]
  ret ptr %.0.i
}